; Function Attrs: nounwind uwtable
define hidden void @je_large_prof_info_get(ptr noundef %0, ptr noundef %1, ptr noundef initializes((8, 16)) %2, i1 noundef zeroext %3) local_unnamed_addr #0 {
  %5 = getelementptr inbounds nuw i8, ptr %1, i64 80
  %6 = load atomic i64, ptr %5 acquire, align 8
  %.0.i.i = inttoptr i64 %6 to ptr
  %7 = getelementptr inbounds nuw i8, ptr %2, i64 8
  store ptr %.0.i.i, ptr %7, align 8, !tbaa !124
  %8 = icmp ugt i64 %6, 1
  br i1 %8, label %9, label %14

9:                                                ; preds = %4
  %10 = getelementptr inbounds nuw i8, ptr %1, i64 64
  tail call void @je_nstime_copy(ptr noundef nonnull %2, ptr noundef nonnull %10) #11
  %11 = getelementptr i8, ptr %1, i64 72
  %.val = load i64, ptr %11, align 8, !tbaa !5
  %12 = getelementptr inbounds nuw i8, ptr %2, i64 16
  store i64 %.val, ptr %12, align 8, !tbaa !127
  br i1 %3, label %13, label %14

13:                                               ; preds = %9
  tail call void @je_prof_recent_alloc_reset(ptr noundef %0, ptr noundef nonnull %1) #11
  br label %14

14:                                               ; preds = %9, %13, %4
  ret void
}